; Function Attrs: nounwind uwtable
define internal void @error(ptr noundef %0, ...) unnamed_addr #0 {
  %2 = alloca [1 x %struct.__va_list_tag], align 16
  call void @llvm.lifetime.start.p0(i64 24, ptr nonnull %2) #26
  call void @llvm.va_start.p0(ptr nonnull %2)
  %3 = load ptr, ptr @filename, align 8
  %.not.i = icmp eq ptr %3, null
  br i1 %.not.i, label %8, label %4

4:                                                ; preds = %1
  %5 = load ptr, ptr @stderr, align 8
  %6 = load i32, ptr @linenum, align 4
  %7 = call i32 (ptr, ptr, ...) @pg_fprintf(ptr noundef %5, ptr noundef nonnull @.str.31, ptr noundef nonnull %3, i32 noundef %6) #26
  br label %8

8:                                                ; preds = %4, %1
  %9 = load ptr, ptr @stderr, align 8
  %10 = call i32 @pg_vfprintf(ptr noundef %9, ptr noundef %0, ptr noundef nonnull %2) #26
  %11 = load ptr, ptr @rfilename, align 8
  %.not3.i = icmp eq ptr %11, null
  br i1 %.not3.i, label %verror.exit, label %12

12:                                               ; preds = %8
  %13 = load ptr, ptr @stderr, align 8
  %14 = load i32, ptr @rlinenum, align 4
  %15 = call i32 (ptr, ptr, ...) @pg_fprintf(ptr noundef %13, ptr noundef nonnull @.str.32, ptr noundef nonnull %11, i32 noundef %14) #26
  br label %verror.exit

verror.exit:                                      ; preds = %8, %12
  %16 = load ptr, ptr @stderr, align 8
  %17 = call i32 (ptr, ptr, ...) @pg_fprintf(ptr noundef %16, ptr noundef nonnull @.str.33) #26
  call void @llvm.va_end.p0(ptr nonnull %2)
  store i1 true, ptr @errors, align 1
  call void @llvm.lifetime.end.p0(i64 24, ptr nonnull %2) #26
  ret void
}